target datalayout = "e-m:e-p270:32:32-p271:32:32-p272:64:64-i64:64-i128:128-f80:128-n8:16:32:64-S128"
target triple = "x86_64-pc-linux-gnu"

@hf_openflow_in_port = internal global i32 0, align 4
@hf_openflow_wildcards = internal global i32 0, align 4
@hf_openflow_eth_src = internal global i32 0, align 4
@hf_openflow_eth_dst = internal global i32 0, align 4
@hf_openflow_dl_vlan = internal global i32 0, align 4
@hf_openflow_dl_vlan_pcp = internal global i32 0, align 4
@hf_openflow_ofp_match_pad = internal global i32 0, align 4
@hf_openflow_match_dl_type = internal global i32 0, align 4
@hf_openflow_ofp_match_tos = internal global i32 0, align 4
@hf_openflow_ofp_match_nw_proto = internal global i32 0, align 4
@hf_openflow_ofp_source_addr = internal global i32 0, align 4
@hf_openflow_ofp_dest_addr = internal global i32 0, align 4
@hf_openflow_ofp_source_port = internal global i32 0, align 4
@hf_openflow_ofp_dest_port = internal global i32 0, align 4

; Function Attrs: null_pointer_is_valid sspstrong uwtable
define internal i32 @dissect_openflow_ofp_match_v1(ptr noundef %0, ptr noundef %1, ptr noundef %2, i32 noundef %3) #0 {
  %5 = alloca ptr, align 8
  %6 = alloca ptr, align 8
  %7 = alloca ptr, align 8
  %8 = alloca i32, align 4
  store ptr %0, ptr %5, align 8
  store ptr %1, ptr %6, align 8
  store ptr %2, ptr %7, align 8
  store i32 %3, ptr %8, align 4
  %9 = load ptr, ptr %7, align 8
  %10 = load i32, ptr @hf_openflow_wildcards, align 4
  %11 = load ptr, ptr %5, align 8
  %12 = load i32, ptr %8, align 4
  %13 = call ptr @proto_tree_add_item(ptr noundef %9, i32 noundef %10, ptr noundef %11, i32 noundef %12, i32 noundef 4, i32 noundef 0)
  %14 = load i32, ptr %8, align 4
  %15 = add i32 %14, 4
  store i32 %15, ptr %8, align 4
  %16 = load ptr, ptr %7, align 8
  %17 = load i32, ptr @hf_openflow_in_port, align 4
  %18 = load ptr, ptr %5, align 8
  %19 = load i32, ptr %8, align 4
  %20 = call ptr @proto_tree_add_item(ptr noundef %16, i32 noundef %17, ptr noundef %18, i32 noundef %19, i32 noundef 2, i32 noundef 0)
  %21 = load i32, ptr %8, align 4
  %22 = add i32 %21, 2
  store i32 %22, ptr %8, align 4
  %23 = load ptr, ptr %7, align 8
  %24 = load i32, ptr @hf_openflow_eth_src, align 4
  %25 = load ptr, ptr %5, align 8
  %26 = load i32, ptr %8, align 4
  %27 = call ptr @proto_tree_add_item(ptr noundef %23, i32 noundef %24, ptr noundef %25, i32 noundef %26, i32 noundef 6, i32 noundef 0)
  %28 = load i32, ptr %8, align 4
  %29 = add i32 %28, 6
  store i32 %29, ptr %8, align 4
  %30 = load ptr, ptr %7, align 8
  %31 = load i32, ptr @hf_openflow_eth_dst, align 4
  %32 = load ptr, ptr %5, align 8
  %33 = load i32, ptr %8, align 4
  %34 = call ptr @proto_tree_add_item(ptr noundef %30, i32 noundef %31, ptr noundef %32, i32 noundef %33, i32 noundef 6, i32 noundef 0)
  %35 = load i32, ptr %8, align 4
  %36 = add i32 %35, 6
  store i32 %36, ptr %8, align 4
  %37 = load ptr, ptr %7, align 8
  %38 = load i32, ptr @hf_openflow_dl_vlan, align 4
  %39 = load ptr, ptr %5, align 8
  %40 = load i32, ptr %8, align 4
  %41 = call ptr @proto_tree_add_item(ptr noundef %37, i32 noundef %38, ptr noundef %39, i32 noundef %40, i32 noundef 2, i32 noundef 0)
  %42 = load i32, ptr %8, align 4
  %43 = add i32 %42, 2
  store i32 %43, ptr %8, align 4
  %44 = load ptr, ptr %7, align 8
  %45 = load i32, ptr @hf_openflow_dl_vlan_pcp, align 4
  %46 = load ptr, ptr %5, align 8
  %47 = load i32, ptr %8, align 4
  %48 = call ptr @proto_tree_add_item(ptr noundef %44, i32 noundef %45, ptr noundef %46, i32 noundef %47, i32 noundef 1, i32 noundef 0)
  %49 = load i32, ptr %8, align 4
  %50 = add i32 %49, 1
  store i32 %50, ptr %8, align 4
  %51 = load ptr, ptr %7, align 8
  %52 = load i32, ptr @hf_openflow_ofp_match_pad, align 4
  %53 = load ptr, ptr %5, align 8
  %54 = load i32, ptr %8, align 4
  %55 = call ptr @proto_tree_add_item(ptr noundef %51, i32 noundef %52, ptr noundef %53, i32 noundef %54, i32 noundef 1, i32 noundef 0)
  %56 = load i32, ptr %8, align 4
  %57 = add i32 %56, 1
  store i32 %57, ptr %8, align 4
  %58 = load ptr, ptr %7, align 8
  %59 = load i32, ptr @hf_openflow_match_dl_type, align 4
  %60 = load ptr, ptr %5, align 8
  %61 = load i32, ptr %8, align 4
  %62 = call ptr @proto_tree_add_item(ptr noundef %58, i32 noundef %59, ptr noundef %60, i32 noundef %61, i32 noundef 2, i32 noundef 0)
  %63 = load i32, ptr %8, align 4
  %64 = add i32 %63, 2
  store i32 %64, ptr %8, align 4
  %65 = load ptr, ptr %7, align 8
  %66 = load i32, ptr @hf_openflow_ofp_match_tos, align 4
  %67 = load ptr, ptr %5, align 8
  %68 = load i32, ptr %8, align 4
  %69 = call ptr @proto_tree_add_item(ptr noundef %65, i32 noundef %66, ptr noundef %67, i32 noundef %68, i32 noundef 1, i32 noundef 0)
  %70 = load i32, ptr %8, align 4
  %71 = add i32 %70, 1
  store i32 %71, ptr %8, align 4
  %72 = load ptr, ptr %7, align 8
  %73 = load i32, ptr @hf_openflow_ofp_match_nw_proto, align 4
  %74 = load ptr, ptr %5, align 8
  %75 = load i32, ptr %8, align 4
  %76 = call ptr @proto_tree_add_item(ptr noundef %72, i32 noundef %73, ptr noundef %74, i32 noundef %75, i32 noundef 1, i32 noundef 0)
  %77 = load i32, ptr %8, align 4
  %78 = add i32 %77, 1
  store i32 %78, ptr %8, align 4
  %79 = load ptr, ptr %7, align 8
  %80 = load i32, ptr @hf_openflow_ofp_match_pad, align 4
  %81 = load ptr, ptr %5, align 8
  %82 = load i32, ptr %8, align 4
  %83 = call ptr @proto_tree_add_item(ptr noundef %79, i32 noundef %80, ptr noundef %81, i32 noundef %82, i32 noundef 2, i32 noundef 0)
  %84 = load i32, ptr %8, align 4
  %85 = add i32 %84, 2
  store i32 %85, ptr %8, align 4
  %86 = load ptr, ptr %7, align 8
  %87 = load i32, ptr @hf_openflow_ofp_source_addr, align 4
  %88 = load ptr, ptr %5, align 8
  %89 = load i32, ptr %8, align 4
  %90 = call ptr @proto_tree_add_item(ptr noundef %86, i32 noundef %87, ptr noundef %88, i32 noundef %89, i32 noundef 4, i32 noundef 0)
  %91 = load i32, ptr %8, align 4
  %92 = add i32 %91, 4
  store i32 %92, ptr %8, align 4
  %93 = load ptr, ptr %7, align 8
  %94 = load i32, ptr @hf_openflow_ofp_dest_addr, align 4
  %95 = load ptr, ptr %5, align 8
  %96 = load i32, ptr %8, align 4
  %97 = call ptr @proto_tree_add_item(ptr noundef %93, i32 noundef %94, ptr noundef %95, i32 noundef %96, i32 noundef 4, i32 noundef 0)
  %98 = load i32, ptr %8, align 4
  %99 = add i32 %98, 4
  store i32 %99, ptr %8, align 4
  %100 = load ptr, ptr %7, align 8
  %101 = load i32, ptr @hf_openflow_ofp_source_port, align 4
  %102 = load ptr, ptr %5, align 8
  %103 = load i32, ptr %8, align 4
  %104 = call ptr @proto_tree_add_item(ptr noundef %100, i32 noundef %101, ptr noundef %102, i32 noundef %103, i32 noundef 2, i32 noundef 0)
  %105 = load i32, ptr %8, align 4
  %106 = add i32 %105, 2
  store i32 %106, ptr %8, align 4
  %107 = load ptr, ptr %7, align 8
  %108 = load i32, ptr @hf_openflow_ofp_dest_port, align 4
  %109 = load ptr, ptr %5, align 8
  %110 = load i32, ptr %8, align 4
  %111 = call ptr @proto_tree_add_item(ptr noundef %107, i32 noundef %108, ptr noundef %109, i32 noundef %110, i32 noundef 2, i32 noundef 0)
  %112 = load i32, ptr %8, align 4
  %113 = add i32 %112, 2
  store i32 %113, ptr %8, align 4
  %114 = load i32, ptr %8, align 4
  ret i32 %114
}