; Function Attrs: null_pointer_is_valid sspstrong uwtable
define internal fastcc range(i32 48, 53) i32 @dissect_openflow_ofp_match_v1(ptr noundef %0, ptr noundef %1, i32 noundef range(i32 8, 13) %2) unnamed_addr #0 {
  %4 = load i32, ptr @hf_openflow_wildcards, align 4
  %5 = tail call ptr @proto_tree_add_item(ptr noundef %1, i32 noundef %4, ptr noundef %0, i32 noundef %2, i32 noundef 4, i32 noundef 0)
  %6 = add nuw nsw i32 %2, 4
  %7 = load i32, ptr @hf_openflow_in_port, align 4
  %8 = tail call ptr @proto_tree_add_item(ptr noundef %1, i32 noundef %7, ptr noundef %0, i32 noundef %6, i32 noundef 2, i32 noundef 0)
  %9 = add nuw nsw i32 %2, 6
  %10 = load i32, ptr @hf_openflow_eth_src, align 4
  %11 = tail call ptr @proto_tree_add_item(ptr noundef %1, i32 noundef %10, ptr noundef %0, i32 noundef %9, i32 noundef 6, i32 noundef 0)
  %12 = add nuw nsw i32 %2, 12
  %13 = load i32, ptr @hf_openflow_eth_dst, align 4
  %14 = tail call ptr @proto_tree_add_item(ptr noundef %1, i32 noundef %13, ptr noundef %0, i32 noundef %12, i32 noundef 6, i32 noundef 0)
  %15 = add nuw nsw i32 %2, 18
  %16 = load i32, ptr @hf_openflow_dl_vlan, align 4
  %17 = tail call ptr @proto_tree_add_item(ptr noundef %1, i32 noundef %16, ptr noundef %0, i32 noundef %15, i32 noundef 2, i32 noundef 0)
  %18 = add nuw nsw i32 %2, 20
  %19 = load i32, ptr @hf_openflow_dl_vlan_pcp, align 4
  %20 = tail call ptr @proto_tree_add_item(ptr noundef %1, i32 noundef %19, ptr noundef %0, i32 noundef %18, i32 noundef 1, i32 noundef 0)
  %21 = add nuw nsw i32 %2, 21
  %22 = load i32, ptr @hf_openflow_ofp_match_pad, align 4
  %23 = tail call ptr @proto_tree_add_item(ptr noundef %1, i32 noundef %22, ptr noundef %0, i32 noundef %21, i32 noundef 1, i32 noundef 0)
  %24 = add nuw nsw i32 %2, 22
  %25 = load i32, ptr @hf_openflow_match_dl_type, align 4
  %26 = tail call ptr @proto_tree_add_item(ptr noundef %1, i32 noundef %25, ptr noundef %0, i32 noundef %24, i32 noundef 2, i32 noundef 0)
  %27 = add nuw nsw i32 %2, 24
  %28 = load i32, ptr @hf_openflow_ofp_match_tos, align 4
  %29 = tail call ptr @proto_tree_add_item(ptr noundef %1, i32 noundef %28, ptr noundef %0, i32 noundef %27, i32 noundef 1, i32 noundef 0)
  %30 = add nuw nsw i32 %2, 25
  %31 = load i32, ptr @hf_openflow_ofp_match_nw_proto, align 4
  %32 = tail call ptr @proto_tree_add_item(ptr noundef %1, i32 noundef %31, ptr noundef %0, i32 noundef %30, i32 noundef 1, i32 noundef 0)
  %33 = add nuw nsw i32 %2, 26
  %34 = load i32, ptr @hf_openflow_ofp_match_pad, align 4
  %35 = tail call ptr @proto_tree_add_item(ptr noundef %1, i32 noundef %34, ptr noundef %0, i32 noundef %33, i32 noundef 2, i32 noundef 0)
  %36 = add nuw nsw i32 %2, 28
  %37 = load i32, ptr @hf_openflow_ofp_source_addr, align 4
  %38 = tail call ptr @proto_tree_add_item(ptr noundef %1, i32 noundef %37, ptr noundef %0, i32 noundef %36, i32 noundef 4, i32 noundef 0)
  %39 = or disjoint i32 %2, 32
  %40 = load i32, ptr @hf_openflow_ofp_dest_addr, align 4
  %41 = tail call ptr @proto_tree_add_item(ptr noundef %1, i32 noundef %40, ptr noundef %0, i32 noundef %39, i32 noundef 4, i32 noundef 0)
  %42 = add nuw nsw i32 %2, 36
  %43 = load i32, ptr @hf_openflow_ofp_source_port, align 4
  %44 = tail call ptr @proto_tree_add_item(ptr noundef %1, i32 noundef %43, ptr noundef %0, i32 noundef %42, i32 noundef 2, i32 noundef 0)
  %45 = add nuw nsw i32 %2, 38
  %46 = load i32, ptr @hf_openflow_ofp_dest_port, align 4
  %47 = tail call ptr @proto_tree_add_item(ptr noundef %1, i32 noundef %46, ptr noundef %0, i32 noundef %45, i32 noundef 2, i32 noundef 0)
  %48 = add nuw nsw i32 %2, 40
  ret i32 %48
}